target datalayout = "e-m:e-p270:32:32-p271:32:32-p272:64:64-i64:64-i128:128-f80:128-n8:16:32:64-S128"
target triple = "x86_64-pc-linux-gnu"

; Function Attrs: nounwind uwtable
define i32 @rmdyjul(ptr noundef %0, ptr noundef %1) #0 {
  %3 = alloca ptr, align 8
  %4 = alloca ptr, align 8
  %5 = alloca [3 x i32], align 4
  store ptr %0, ptr %3, align 8
  store ptr %1, ptr %4, align 8
  call void @llvm.lifetime.start.p0(i64 12, ptr %5) #9
  %6 = load ptr, ptr %3, align 8
  %7 = getelementptr inbounds i16, ptr %6, i64 0
  %8 = load i16, ptr %7, align 2
  %9 = sext i16 %8 to i32
  %10 = getelementptr inbounds [3 x i32], ptr %5, i64 0, i64 0
  store i32 %9, ptr %10, align 4
  %11 = load ptr, ptr %3, align 8
  %12 = getelementptr inbounds i16, ptr %11, i64 1
  %13 = load i16, ptr %12, align 2
  %14 = sext i16 %13 to i32
  %15 = getelementptr inbounds [3 x i32], ptr %5, i64 0, i64 1
  store i32 %14, ptr %15, align 4
  %16 = load ptr, ptr %3, align 8
  %17 = getelementptr inbounds i16, ptr %16, i64 2
  %18 = load i16, ptr %17, align 2
  %19 = sext i16 %18 to i32
  %20 = getelementptr inbounds [3 x i32], ptr %5, i64 0, i64 2
  store i32 %19, ptr %20, align 4
  %21 = getelementptr inbounds [3 x i32], ptr %5, i64 0, i64 0
  %22 = load ptr, ptr %4, align 8
  call void @PGTYPESdate_mdyjul(ptr noundef %21, ptr noundef %22)
  call void @llvm.lifetime.end.p0(i64 12, ptr %5) #9
  ret i32 0
}