; Function Attrs: nounwind uwtable
define noundef i32 @rmdyjul(ptr noundef readonly captures(none) %0, ptr noundef %1) local_unnamed_addr #0 {
  %3 = alloca [3 x i32], align 4
  call void @llvm.lifetime.start.p0(i64 12, ptr nonnull %3) #16
  %4 = load i16, ptr %0, align 2
  %5 = sext i16 %4 to i32
  store i32 %5, ptr %3, align 4
  %6 = getelementptr inbounds nuw i8, ptr %0, i64 2
  %7 = load i16, ptr %6, align 2
  %8 = sext i16 %7 to i32
  %9 = getelementptr inbounds nuw i8, ptr %3, i64 4
  store i32 %8, ptr %9, align 4
  %10 = getelementptr inbounds nuw i8, ptr %0, i64 4
  %11 = load i16, ptr %10, align 2
  %12 = sext i16 %11 to i32
  %13 = getelementptr inbounds nuw i8, ptr %3, i64 8
  store i32 %12, ptr %13, align 4
  call void @PGTYPESdate_mdyjul(ptr noundef nonnull %3, ptr noundef %1) #16
  call void @llvm.lifetime.end.p0(i64 12, ptr nonnull %3) #16
  ret i32 0
}